; Function Attrs: mustprogress uwtable
define void @_ZNK10open_spiel12connect_four16ConnectFourState14ActionToStringB5cxx11Eil(ptr dead_on_unwind noalias writable sret(%"class.std::__cxx11::basic_string") align 8 %0, ptr nonnull readnone align 8 captures(none) %1, i32 noundef %2, i64 noundef %3) unnamed_addr #3 align 2 personality ptr @__gxx_personality_v0 {
  %5 = alloca %"class.std::__cxx11::basic_string", align 8
  %6 = alloca %"class.absl::debian2::AlphaNum", align 8
  %7 = alloca %"class.absl::debian2::AlphaNum", align 8
  %8 = alloca %"class.absl::debian2::AlphaNum", align 8
  %9 = alloca %"class.std::__cxx11::basic_string", align 8
  %10 = alloca %"class.absl::debian2::AlphaNum", align 8
  call void @llvm.lifetime.start.p0(i64 32, ptr nonnull %5)
  call void @llvm.lifetime.start.p0(i64 48, ptr nonnull %6)
  call void @llvm.lifetime.start.p0(i64 48, ptr nonnull %7)
  switch i32 %2, label %_ZN4absl7debian28AlphaNumC2EPKc.exit.i [
    i32 0, label %_ZN10open_spiel12connect_four12_GLOBAL__N_113PlayerToStateEi.exit
    i32 1, label %11
  ]

11:                                               ; preds = %4
  br label %_ZN10open_spiel12connect_four12_GLOBAL__N_113PlayerToStateEi.exit

_ZN4absl7debian28AlphaNumC2EPKc.exit.i:           ; preds = %4
  store ptr @.str.26, ptr %6, align 8
  %12 = getelementptr inbounds nuw i8, ptr %6, i64 8
  store i64 18, ptr %12, align 8
  %13 = getelementptr inbounds nuw i8, ptr %7, i64 16
  %14 = call noundef ptr @_ZN4absl7debian216numbers_internal15FastIntToBufferEiPc(i32 noundef %2, ptr noundef nonnull %13)
  %15 = ptrtoint ptr %14 to i64
  %16 = ptrtoint ptr %13 to i64
  %17 = sub i64 %15, %16
  store ptr %13, ptr %7, align 8
  %18 = icmp sgt i64 %17, -1
  br i1 %18, label %_ZN4absl7debian28AlphaNumC2Ei.exit.i, label %19

19:                                               ; preds = %_ZN4absl7debian28AlphaNumC2EPKc.exit.i
  call void @llvm.trap()
  unreachable

_ZN4absl7debian28AlphaNumC2Ei.exit.i:             ; preds = %_ZN4absl7debian28AlphaNumC2EPKc.exit.i
  %20 = getelementptr inbounds nuw i8, ptr %7, i64 8
  store i64 %17, ptr %20, align 8
  call void @_ZN4absl7debian26StrCatB5cxx11ERKNS0_8AlphaNumES3_(ptr dead_on_unwind nonnull writable sret(%"class.std::__cxx11::basic_string") align 8 %5, ptr noundef nonnull align 8 dereferenceable(48) %6, ptr noundef nonnull align 8 dereferenceable(48) %7)
  invoke void @_ZN10open_spiel15SpielFatalErrorERKNSt7__cxx1112basic_stringIcSt11char_traitsIcESaIcEEE(ptr noundef nonnull align 8 dereferenceable(32) %5) #24
          to label %21 unwind label %22

21:                                               ; preds = %_ZN4absl7debian28AlphaNumC2Ei.exit.i
  unreachable

common.resume:                                    ; preds = %39, %22
  %.sink = phi ptr [ %9, %39 ], [ %5, %22 ]
  %common.resume.op = phi { ptr, i32 } [ %40, %39 ], [ %23, %22 ]
  call void @_ZNSt7__cxx1112basic_stringIcSt11char_traitsIcESaIcEED1Ev(ptr noundef nonnull align 8 dereferenceable(32) %.sink) #25
  resume { ptr, i32 } %common.resume.op

22:                                               ; preds = %_ZN4absl7debian28AlphaNumC2Ei.exit.i
  %23 = landingpad { ptr, i32 }
          cleanup
  br label %common.resume

_ZN10open_spiel12connect_four12_GLOBAL__N_113PlayerToStateEi.exit: ; preds = %4, %11
  %.0.i = phi i32 [ 1, %11 ], [ 2, %4 ]
  call void @llvm.lifetime.end.p0(i64 32, ptr nonnull %5)
  call void @llvm.lifetime.end.p0(i64 48, ptr nonnull %6)
  call void @llvm.lifetime.end.p0(i64 48, ptr nonnull %7)
  call fastcc void @_ZN10open_spiel12connect_four12_GLOBAL__N_113StateToStringB5cxx11ENS0_9CellStateE(ptr dead_on_unwind noalias writable align 8 %9, i32 noundef %.0.i)
  %24 = call noundef ptr @_ZNKSt7__cxx1112basic_stringIcSt11char_traitsIcESaIcEE4dataEv(ptr noundef nonnull align 8 dereferenceable(32) %9) #25
  %25 = call noundef i64 @_ZNKSt7__cxx1112basic_stringIcSt11char_traitsIcESaIcEE4sizeEv(ptr noundef nonnull align 8 dereferenceable(32) %9) #25
  store ptr %24, ptr %8, align 8
  %26 = icmp sgt i64 %25, -1
  br i1 %26, label %_ZN4absl7debian28AlphaNumC2ISaIcEEERKNSt7__cxx1112basic_stringIcSt11char_traitsIcET_EE.exit, label %27

27:                                               ; preds = %_ZN10open_spiel12connect_four12_GLOBAL__N_113PlayerToStateEi.exit
  call void @llvm.trap()
  unreachable

_ZN4absl7debian28AlphaNumC2ISaIcEEERKNSt7__cxx1112basic_stringIcSt11char_traitsIcET_EE.exit: ; preds = %_ZN10open_spiel12connect_four12_GLOBAL__N_113PlayerToStateEi.exit
  %28 = getelementptr inbounds nuw i8, ptr %8, i64 8
  store i64 %25, ptr %28, align 8
  %29 = getelementptr inbounds nuw i8, ptr %10, i64 16
  %30 = invoke noundef ptr @_ZN4absl7debian216numbers_internal15FastIntToBufferElPc(i64 noundef %3, ptr noundef nonnull %29)
          to label %.noexc unwind label %39

.noexc:                                           ; preds = %_ZN4absl7debian28AlphaNumC2ISaIcEEERKNSt7__cxx1112basic_stringIcSt11char_traitsIcET_EE.exit
  %31 = ptrtoint ptr %30 to i64
  %32 = ptrtoint ptr %29 to i64
  %33 = sub i64 %31, %32
  store ptr %29, ptr %10, align 8
  %34 = icmp sgt i64 %33, -1
  br i1 %34, label %36, label %35

35:                                               ; preds = %.noexc
  call void @llvm.trap()
  unreachable

36:                                               ; preds = %.noexc
  %37 = getelementptr inbounds nuw i8, ptr %10, i64 8
  store i64 %33, ptr %37, align 8
  invoke void @_ZN4absl7debian26StrCatB5cxx11ERKNS0_8AlphaNumES3_(ptr dead_on_unwind writable sret(%"class.std::__cxx11::basic_string") align 8 %0, ptr noundef nonnull align 8 dereferenceable(48) %8, ptr noundef nonnull align 8 dereferenceable(48) %10)
          to label %38 unwind label %39

38:                                               ; preds = %36
  call void @_ZNSt7__cxx1112basic_stringIcSt11char_traitsIcESaIcEED1Ev(ptr noundef nonnull align 8 dereferenceable(32) %9) #25
  ret void

39:                                               ; preds = %_ZN4absl7debian28AlphaNumC2ISaIcEEERKNSt7__cxx1112basic_stringIcSt11char_traitsIcET_EE.exit, %36
  %40 = landingpad { ptr, i32 }
          cleanup
  br label %common.resume
}